; Function Attrs: mustprogress nofree norecurse nosync nounwind willreturn memory(read, inaccessiblemem: none) uwtable
define dso_local noundef ptr @_ZNK4llvm13LiveVariables7VarInfo8findKillEPKNS_17MachineBasicBlockE(ptr noundef nonnull readonly align 8 captures(none) dereferenceable(56) %0, ptr noundef readnone %1) local_unnamed_addr #3 align 2 {
  %3 = getelementptr inbounds nuw i8, ptr %0, i64 32
  %4 = load ptr, ptr %3, align 8
  %5 = getelementptr inbounds nuw i8, ptr %0, i64 40
  %6 = load ptr, ptr %5, align 8
  %.not10 = icmp eq ptr %4, %6
  br i1 %.not10, label %._crit_edge, label %.lr.ph

7:                                                ; preds = %.lr.ph
  %8 = getelementptr inbounds nuw i8, ptr %.sroa.07.011, i64 8
  %.not = icmp eq ptr %8, %6
  br i1 %.not, label %._crit_edge, label %.lr.ph

.lr.ph:                                           ; preds = %2, %7
  %.sroa.07.011 = phi ptr [ %8, %7 ], [ %4, %2 ]
  %9 = load ptr, ptr %.sroa.07.011, align 8
  %10 = getelementptr inbounds nuw i8, ptr %9, i64 24
  %11 = load ptr, ptr %10, align 8
  %12 = icmp eq ptr %11, %1
  br i1 %12, label %._crit_edge, label %7

._crit_edge:                                      ; preds = %.lr.ph, %7, %2
  %.0 = phi ptr [ null, %2 ], [ null, %7 ], [ %9, %.lr.ph ]
  ret ptr %.0
}